target datalayout = "e-m:e-p270:32:32-p271:32:32-p272:64:64-i64:64-i128:128-f80:128-n8:16:32:64-S128"
target triple = "x86_64-pc-linux-gnu"

; Function Attrs: nounwind uwtable
define i32 @OBJ_create_objects(ptr noundef %0) #0 {
  %2 = alloca i32, align 4
  %3 = alloca ptr, align 8
  %4 = alloca [512 x i8], align 16
  %5 = alloca i32, align 4
  %6 = alloca i32, align 4
  %7 = alloca ptr, align 8
  %8 = alloca ptr, align 8
  %9 = alloca ptr, align 8
  %10 = alloca i32, align 4
  store ptr %0, ptr %3, align 8, !tbaa !38
  call void @llvm.lifetime.start.p0(i64 512, ptr %4) #6
  call void @llvm.lifetime.start.p0(i64 4, ptr %5) #6
  call void @llvm.lifetime.start.p0(i64 4, ptr %6) #6
  store i32 0, ptr %6, align 4, !tbaa !21
  call void @llvm.lifetime.start.p0(i64 8, ptr %7) #6
  call void @llvm.lifetime.start.p0(i64 8, ptr %8) #6
  call void @llvm.lifetime.start.p0(i64 8, ptr %9) #6
  store ptr null, ptr %9, align 8, !tbaa !26
  br label %11

11:                                               ; preds = %134, %1
  store ptr null, ptr %7, align 8, !tbaa !26
  store ptr null, ptr %8, align 8, !tbaa !26
  %12 = load ptr, ptr %3, align 8, !tbaa !38
  %13 = getelementptr inbounds [512 x i8], ptr %4, i64 0, i64 0
  %14 = call i32 @BIO_gets(ptr noundef %12, ptr noundef %13, i32 noundef 512)
  store i32 %14, ptr %5, align 4, !tbaa !21
  %15 = load i32, ptr %5, align 4, !tbaa !21
  %16 = icmp sle i32 %15, 0
  br i1 %16, label %17, label %19

17:                                               ; preds = %11
  %18 = load i32, ptr %6, align 4, !tbaa !21
  store i32 %18, ptr %2, align 4
  store i32 1, ptr %10, align 4
  br label %137

19:                                               ; preds = %11
  %20 = load i32, ptr %5, align 4, !tbaa !21
  %21 = sub nsw i32 %20, 1
  %22 = sext i32 %21 to i64
  %23 = getelementptr inbounds [512 x i8], ptr %4, i64 0, i64 %22
  store i8 0, ptr %23, align 1, !tbaa !27
  %24 = getelementptr inbounds [512 x i8], ptr %4, i64 0, i64 0
  %25 = load i8, ptr %24, align 16, !tbaa !27
  %26 = sext i8 %25 to i32
  %27 = call i32 @ossl_ctype_check(i32 noundef %26, i32 noundef 7)
  %28 = icmp ne i32 %27, 0
  br i1 %28, label %31, label %29

29:                                               ; preds = %19
  %30 = load i32, ptr %6, align 4, !tbaa !21
  store i32 %30, ptr %2, align 4
  store i32 1, ptr %10, align 4
  br label %137

31:                                               ; preds = %19
  %32 = getelementptr inbounds [512 x i8], ptr %4, i64 0, i64 0
  store ptr %32, ptr %8, align 8, !tbaa !26
  store ptr %32, ptr %7, align 8, !tbaa !26
  br label %33

33:                                               ; preds = %46, %31
  %34 = load ptr, ptr %8, align 8, !tbaa !26
  %35 = load i8, ptr %34, align 1, !tbaa !27
  %36 = sext i8 %35 to i32
  %37 = call i32 @ossl_isdigit(i32 noundef %36)
  %38 = icmp ne i32 %37, 0
  br i1 %38, label %44, label %39

39:                                               ; preds = %33
  %40 = load ptr, ptr %8, align 8, !tbaa !26
  %41 = load i8, ptr %40, align 1, !tbaa !27
  %42 = sext i8 %41 to i32
  %43 = icmp eq i32 %42, 46
  br label %44

44:                                               ; preds = %39, %33
  %45 = phi i1 [ true, %33 ], [ %43, %39 ]
  br i1 %45, label %46, label %49

46:                                               ; preds = %44
  %47 = load ptr, ptr %8, align 8, !tbaa !26
  %48 = getelementptr inbounds nuw i8, ptr %47, i32 1
  store ptr %48, ptr %8, align 8, !tbaa !26
  br label %33, !llvm.loop !40

49:                                               ; preds = %44
  %50 = load ptr, ptr %8, align 8, !tbaa !26
  %51 = load i8, ptr %50, align 1, !tbaa !27
  %52 = sext i8 %51 to i32
  %53 = icmp ne i32 %52, 0
  br i1 %53, label %54, label %118

54:                                               ; preds = %49
  %55 = load ptr, ptr %8, align 8, !tbaa !26
  %56 = getelementptr inbounds nuw i8, ptr %55, i32 1
  store ptr %56, ptr %8, align 8, !tbaa !26
  store i8 0, ptr %55, align 1, !tbaa !27
  br label %57

57:                                               ; preds = %63, %54
  %58 = load ptr, ptr %8, align 8, !tbaa !26
  %59 = load i8, ptr %58, align 1, !tbaa !27
  %60 = sext i8 %59 to i32
  %61 = call i32 @ossl_ctype_check(i32 noundef %60, i32 noundef 8)
  %62 = icmp ne i32 %61, 0
  br i1 %62, label %63, label %66

63:                                               ; preds = %57
  %64 = load ptr, ptr %8, align 8, !tbaa !26
  %65 = getelementptr inbounds nuw i8, ptr %64, i32 1
  store ptr %65, ptr %8, align 8, !tbaa !26
  br label %57, !llvm.loop !41

66:                                               ; preds = %57
  %67 = load ptr, ptr %8, align 8, !tbaa !26
  %68 = load i8, ptr %67, align 1, !tbaa !27
  %69 = sext i8 %68 to i32
  %70 = icmp eq i32 %69, 0
  br i1 %70, label %71, label %72

71:                                               ; preds = %66
  store ptr null, ptr %8, align 8, !tbaa !26
  br label %117

72:                                               ; preds = %66
  %73 = load ptr, ptr %8, align 8, !tbaa !26
  store ptr %73, ptr %9, align 8, !tbaa !26
  br label %74

74:                                               ; preds = %88, %72
  %75 = load ptr, ptr %9, align 8, !tbaa !26
  %76 = load i8, ptr %75, align 1, !tbaa !27
  %77 = sext i8 %76 to i32
  %78 = icmp ne i32 %77, 0
  br i1 %78, label %79, label %86

79:                                               ; preds = %74
  %80 = load ptr, ptr %9, align 8, !tbaa !26
  %81 = load i8, ptr %80, align 1, !tbaa !27
  %82 = sext i8 %81 to i32
  %83 = call i32 @ossl_ctype_check(i32 noundef %82, i32 noundef 8)
  %84 = icmp ne i32 %83, 0
  %85 = xor i1 %84, true
  br label %86

86:                                               ; preds = %79, %74
  %87 = phi i1 [ false, %74 ], [ %85, %79 ]
  br i1 %87, label %88, label %91

88:                                               ; preds = %86
  %89 = load ptr, ptr %9, align 8, !tbaa !26
  %90 = getelementptr inbounds nuw i8, ptr %89, i32 1
  store ptr %90, ptr %9, align 8, !tbaa !26
  br label %74, !llvm.loop !42

91:                                               ; preds = %86
  %92 = load ptr, ptr %9, align 8, !tbaa !26
  %93 = load i8, ptr %92, align 1, !tbaa !27
  %94 = sext i8 %93 to i32
  %95 = icmp ne i32 %94, 0
  br i1 %95, label %96, label %115

96:                                               ; preds = %91
  %97 = load ptr, ptr %9, align 8, !tbaa !26
  %98 = getelementptr inbounds nuw i8, ptr %97, i32 1
  store ptr %98, ptr %9, align 8, !tbaa !26
  store i8 0, ptr %97, align 1, !tbaa !27
  br label %99

99:                                               ; preds = %105, %96
  %100 = load ptr, ptr %9, align 8, !tbaa !26
  %101 = load i8, ptr %100, align 1, !tbaa !27
  %102 = sext i8 %101 to i32
  %103 = call i32 @ossl_ctype_check(i32 noundef %102, i32 noundef 8)
  %104 = icmp ne i32 %103, 0
  br i1 %104, label %105, label %108

105:                                              ; preds = %99
  %106 = load ptr, ptr %9, align 8, !tbaa !26
  %107 = getelementptr inbounds nuw i8, ptr %106, i32 1
  store ptr %107, ptr %9, align 8, !tbaa !26
  br label %99, !llvm.loop !43

108:                                              ; preds = %99
  %109 = load ptr, ptr %9, align 8, !tbaa !26
  %110 = load i8, ptr %109, align 1, !tbaa !27
  %111 = sext i8 %110 to i32
  %112 = icmp eq i32 %111, 0
  br i1 %112, label %113, label %114

113:                                              ; preds = %108
  store ptr null, ptr %9, align 8, !tbaa !26
  br label %114

114:                                              ; preds = %113, %108
  br label %116

115:                                              ; preds = %91
  store ptr null, ptr %9, align 8, !tbaa !26
  br label %116

116:                                              ; preds = %115, %114
  br label %117

117:                                              ; preds = %116, %71
  br label %119

118:                                              ; preds = %49
  store ptr null, ptr %8, align 8, !tbaa !26
  br label %119

119:                                              ; preds = %118, %117
  %120 = load ptr, ptr %7, align 8, !tbaa !26
  %121 = load i8, ptr %120, align 1, !tbaa !27
  %122 = sext i8 %121 to i32
  %123 = icmp eq i32 %122, 0
  br i1 %123, label %124, label %126

124:                                              ; preds = %119
  %125 = load i32, ptr %6, align 4, !tbaa !21
  store i32 %125, ptr %2, align 4
  store i32 1, ptr %10, align 4
  br label %137

126:                                              ; preds = %119
  %127 = load ptr, ptr %7, align 8, !tbaa !26
  %128 = load ptr, ptr %8, align 8, !tbaa !26
  %129 = load ptr, ptr %9, align 8, !tbaa !26
  %130 = call i32 @OBJ_create(ptr noundef %127, ptr noundef %128, ptr noundef %129)
  %131 = icmp ne i32 %130, 0
  br i1 %131, label %134, label %132

132:                                              ; preds = %126
  %133 = load i32, ptr %6, align 4, !tbaa !21
  store i32 %133, ptr %2, align 4
  store i32 1, ptr %10, align 4
  br label %137

134:                                              ; preds = %126
  %135 = load i32, ptr %6, align 4, !tbaa !21
  %136 = add nsw i32 %135, 1
  store i32 %136, ptr %6, align 4, !tbaa !21
  br label %11

137:                                              ; preds = %132, %124, %29, %17
  call void @llvm.lifetime.end.p0(i64 8, ptr %9) #6
  call void @llvm.lifetime.end.p0(i64 8, ptr %8) #6
  call void @llvm.lifetime.end.p0(i64 8, ptr %7) #6
  call void @llvm.lifetime.end.p0(i64 4, ptr %6) #6
  call void @llvm.lifetime.end.p0(i64 4, ptr %5) #6
  call void @llvm.lifetime.end.p0(i64 512, ptr %4) #6
  %138 = load i32, ptr %2, align 4
  ret i32 %138
}