; Function Attrs: nounwind uwtable
define i32 @OBJ_create_objects(ptr noundef %0) local_unnamed_addr #0 {
  %2 = alloca [512 x i8], align 16
  call void @llvm.lifetime.start.p0(i64 512, ptr nonnull %2) #10
  %3 = call i32 @BIO_gets(ptr noundef %0, ptr noundef nonnull %2, i32 noundef 512) #10
  %4 = icmp slt i32 %3, 1
  br i1 %4, label %._crit_edge, label %.lr.ph

.lr.ph:                                           ; preds = %1, %44
  %5 = phi i32 [ %46, %44 ], [ %3, %1 ]
  %.051 = phi ptr [ %.3, %44 ], [ null, %1 ]
  %.03450 = phi i32 [ %45, %44 ], [ 0, %1 ]
  %6 = add nsw i32 %5, -1
  %7 = zext nneg i32 %6 to i64
  %8 = getelementptr inbounds nuw [512 x i8], ptr %2, i64 0, i64 %7
  store i8 0, ptr %8, align 1, !tbaa !20
  %9 = load i8, ptr %2, align 16, !tbaa !20
  %10 = sext i8 %9 to i32
  %11 = call i32 @ossl_ctype_check(i32 noundef %10, i32 noundef 7) #10
  %.not = icmp eq i32 %11, 0
  br i1 %.not, label %._crit_edge, label %.preheader47

.preheader47:                                     ; preds = %.lr.ph, %.critedge
  %.031 = phi ptr [ %17, %.critedge ], [ %2, %.lr.ph ]
  %12 = load i8, ptr %.031, align 1, !tbaa !20
  %13 = sext i8 %12 to i32
  %14 = call i32 @ossl_isdigit(i32 noundef %13) #10
  %.not39 = icmp eq i32 %14, 0
  br i1 %.not39, label %15, label %.critedge

15:                                               ; preds = %.preheader47
  %16 = load i8, ptr %.031, align 1, !tbaa !20
  switch i8 %16, label %18 [
    i8 46, label %.critedge
    i8 0, label %.loopexit
  ]

.critedge:                                        ; preds = %15, %.preheader47
  %17 = getelementptr inbounds nuw i8, ptr %.031, i64 1
  br label %.preheader47, !llvm.loop !28

18:                                               ; preds = %15
  store i8 0, ptr %.031, align 1, !tbaa !20
  br label %19

19:                                               ; preds = %19, %18
  %.031.pn = phi ptr [ %.031, %18 ], [ %.132, %19 ]
  %.132 = getelementptr inbounds nuw i8, ptr %.031.pn, i64 1
  %20 = load i8, ptr %.132, align 1, !tbaa !20
  %21 = sext i8 %20 to i32
  %22 = call i32 @ossl_ctype_check(i32 noundef %21, i32 noundef 8) #10
  %.not41 = icmp eq i32 %22, 0
  br i1 %.not41, label %23, label %19, !llvm.loop !29

23:                                               ; preds = %19
  %24 = load i8, ptr %.132, align 1, !tbaa !20
  %25 = icmp eq i8 %24, 0
  br i1 %25, label %.loopexit, label %.preheader

.preheader:                                       ; preds = %23, %29
  %.149 = phi ptr [ %30, %29 ], [ %.132, %23 ]
  %26 = phi i8 [ %.pr, %29 ], [ %24, %23 ]
  %27 = sext i8 %26 to i32
  %28 = call i32 @ossl_ctype_check(i32 noundef %27, i32 noundef 8) #10
  %.not43 = icmp eq i32 %28, 0
  br i1 %.not43, label %29, label %.critedge2

29:                                               ; preds = %.preheader
  %30 = getelementptr inbounds nuw i8, ptr %.149, i64 1
  %.pr = load i8, ptr %30, align 1, !tbaa !20
  %.not42 = icmp eq i8 %.pr, 0
  br i1 %.not42, label %.loopexit, label %.preheader, !llvm.loop !30

.critedge2:                                       ; preds = %.preheader
  %.pre = load i8, ptr %.149, align 1, !tbaa !20
  %31 = icmp eq i8 %.pre, 0
  br i1 %31, label %.loopexit, label %32

32:                                               ; preds = %.critedge2
  store i8 0, ptr %.149, align 1, !tbaa !20
  br label %33

33:                                               ; preds = %33, %32
  %.1.pn = phi ptr [ %.149, %32 ], [ %.2, %33 ]
  %.2 = getelementptr inbounds nuw i8, ptr %.1.pn, i64 1
  %34 = load i8, ptr %.2, align 1, !tbaa !20
  %35 = sext i8 %34 to i32
  %36 = call i32 @ossl_ctype_check(i32 noundef %35, i32 noundef 8) #10
  %.not45 = icmp eq i32 %36, 0
  br i1 %.not45, label %37, label %33, !llvm.loop !31

37:                                               ; preds = %33
  %38 = load i8, ptr %.2, align 1, !tbaa !20
  %39 = icmp eq i8 %38, 0
  %spec.store.select = select i1 %39, ptr null, ptr %.2
  br label %.loopexit

.loopexit:                                        ; preds = %15, %29, %.critedge2, %23, %37
  %.233 = phi ptr [ %.132, %37 ], [ null, %23 ], [ %.132, %.critedge2 ], [ %.132, %29 ], [ null, %15 ]
  %.3 = phi ptr [ %spec.store.select, %37 ], [ %.051, %23 ], [ null, %.critedge2 ], [ null, %29 ], [ %.051, %15 ]
  %40 = load i8, ptr %2, align 16, !tbaa !20
  %41 = icmp eq i8 %40, 0
  br i1 %41, label %._crit_edge, label %42

42:                                               ; preds = %.loopexit
  %43 = call i32 @OBJ_create(ptr noundef nonnull %2, ptr noundef %.233, ptr noundef %.3)
  %.not46 = icmp eq i32 %43, 0
  br i1 %.not46, label %._crit_edge, label %44

44:                                               ; preds = %42
  %45 = add nuw nsw i32 %.03450, 1
  %46 = call i32 @BIO_gets(ptr noundef %0, ptr noundef nonnull %2, i32 noundef 512) #10
  %47 = icmp slt i32 %46, 1
  br i1 %47, label %._crit_edge, label %.lr.ph

._crit_edge:                                      ; preds = %44, %.lr.ph, %.loopexit, %42, %1
  %.034.lcssa = phi i32 [ 0, %1 ], [ %.03450, %42 ], [ %.03450, %.loopexit ], [ %.03450, %.lr.ph ], [ %45, %44 ]
  call void @llvm.lifetime.end.p0(i64 512, ptr nonnull %2) #10
  ret i32 %.034.lcssa
}